; ModuleID = '39/86.c'
source_filename = "39/86.c"
target datalayout = "e-m:e-p270:32:32-p271:32:32-p272:64:64-i64:64-f80:128-n8:16:32:64-S128"
target triple = "x86_64-pc-linux-gnu"

%struct.student = type { [20 x i8], i32, i32, i8, i8, i32, i32, %struct.student* }

@.str = private unnamed_addr constant [3 x i8] c"%d\00", align 1
@.str.1 = private unnamed_addr constant [18 x i8] c"%s %d %d %c %c %d\00", align 1
@.str.2 = private unnamed_addr constant [10 x i8] c"%s\0A%d\0A%d\0A\00", align 1

; Function Attrs: noinline nounwind uwtable
define dso_local void @main() #0 {
  %1 = alloca i32, align 4
  %2 = alloca i32, align 4
  %3 = alloca i32, align 4
  %4 = alloca i32, align 4
  %5 = alloca %struct.student*, align 8
  %6 = alloca %struct.student*, align 8
  %7 = alloca %struct.student*, align 8
  store i32 0, i32* %2, align 4
  store i32 0, i32* %3, align 4
  store i32 0, i32* %4, align 4
  %8 = call i32 (i8*, ...) @__isoc99_scanf(i8* getelementptr inbounds ([3 x i8], [3 x i8]* @.str, i64 0, i64 0), i32* %1)
  %9 = call noalias i8* @malloc(i64 48) #3
  %10 = bitcast i8* %9 to %struct.student*
  store %struct.student* %10, %struct.student** %6, align 8
  store %struct.student* %10, %struct.student** %5, align 8
  %11 = load %struct.student*, %struct.student** %6, align 8
  %12 = getelementptr inbounds %struct.student, %struct.student* %11, i32 0, i32 6
  store i32 0, i32* %12, align 4
  br label %13

13:                                               ; preds = %115, %0
  %14 = load i32, i32* %2, align 4
  %15 = add nsw i32 %14, 1
  store i32 %15, i32* %2, align 4
  %16 = load i32, i32* %1, align 4
  %17 = icmp slt i32 %14, %16
  br i1 %17, label %18, label %127

18:                                               ; preds = %13
  %19 = load %struct.student*, %struct.student** %6, align 8
  %20 = getelementptr inbounds %struct.student, %struct.student* %19, i32 0, i32 0
  %21 = getelementptr inbounds [20 x i8], [20 x i8]* %20, i64 0, i64 0
  %22 = load %struct.student*, %struct.student** %6, align 8
  %23 = getelementptr inbounds %struct.student, %struct.student* %22, i32 0, i32 1
  %24 = load %struct.student*, %struct.student** %6, align 8
  %25 = getelementptr inbounds %struct.student, %struct.student* %24, i32 0, i32 2
  %26 = load %struct.student*, %struct.student** %6, align 8
  %27 = getelementptr inbounds %struct.student, %struct.student* %26, i32 0, i32 3
  %28 = load %struct.student*, %struct.student** %6, align 8
  %29 = getelementptr inbounds %struct.student, %struct.student* %28, i32 0, i32 4
  %30 = load %struct.student*, %struct.student** %6, align 8
  %31 = getelementptr inbounds %struct.student, %struct.student* %30, i32 0, i32 5
  %32 = call i32 (i8*, ...) @__isoc99_scanf(i8* getelementptr inbounds ([18 x i8], [18 x i8]* @.str.1, i64 0, i64 0), i8* %21, i32* %23, i32* %25, i8* %27, i8* %29, i32* %31)
  %33 = load %struct.student*, %struct.student** %6, align 8
  %34 = getelementptr inbounds %struct.student, %struct.student* %33, i32 0, i32 1
  %35 = load i32, i32* %34, align 4
  %36 = icmp sgt i32 %35, 80
  br i1 %36, label %37, label %47

37:                                               ; preds = %18
  %38 = load %struct.student*, %struct.student** %6, align 8
  %39 = getelementptr inbounds %struct.student, %struct.student* %38, i32 0, i32 5
  %40 = load i32, i32* %39, align 8
  %41 = icmp sgt i32 %40, 0
  br i1 %41, label %42, label %47

42:                                               ; preds = %37
  %43 = load %struct.student*, %struct.student** %6, align 8
  %44 = getelementptr inbounds %struct.student, %struct.student* %43, i32 0, i32 6
  %45 = load i32, i32* %44, align 4
  %46 = add nsw i32 %45, 8000
  store i32 %46, i32* %44, align 4
  br label %47

47:                                               ; preds = %42, %37, %18
  %48 = load %struct.student*, %struct.student** %6, align 8
  %49 = getelementptr inbounds %struct.student, %struct.student* %48, i32 0, i32 1
  %50 = load i32, i32* %49, align 4
  %51 = icmp sgt i32 %50, 85
  br i1 %51, label %52, label %62

52:                                               ; preds = %47
  %53 = load %struct.student*, %struct.student** %6, align 8
  %54 = getelementptr inbounds %struct.student, %struct.student* %53, i32 0, i32 2
  %55 = load i32, i32* %54, align 8
  %56 = icmp sgt i32 %55, 80
  br i1 %56, label %57, label %62

57:                                               ; preds = %52
  %58 = load %struct.student*, %struct.student** %6, align 8
  %59 = getelementptr inbounds %struct.student, %struct.student* %58, i32 0, i32 6
  %60 = load i32, i32* %59, align 4
  %61 = add nsw i32 %60, 4000
  store i32 %61, i32* %59, align 4
  br label %62

62:                                               ; preds = %57, %52, %47
  %63 = load %struct.student*, %struct.student** %6, align 8
  %64 = getelementptr inbounds %struct.student, %struct.student* %63, i32 0, i32 1
  %65 = load i32, i32* %64, align 4
  %66 = icmp sgt i32 %65, 90
  br i1 %66, label %67, label %72

67:                                               ; preds = %62
  %68 = load %struct.student*, %struct.student** %6, align 8
  %69 = getelementptr inbounds %struct.student, %struct.student* %68, i32 0, i32 6
  %70 = load i32, i32* %69, align 4
  %71 = add nsw i32 %70, 2000
  store i32 %71, i32* %69, align 4
  br label %72

72:                                               ; preds = %67, %62
  %73 = load %struct.student*, %struct.student** %6, align 8
  %74 = getelementptr inbounds %struct.student, %struct.student* %73, i32 0, i32 1
  %75 = load i32, i32* %74, align 4
  %76 = icmp sgt i32 %75, 85
  br i1 %76, label %77, label %88

77:                                               ; preds = %72
  %78 = load %struct.student*, %struct.student** %6, align 8
  %79 = getelementptr inbounds %struct.student, %struct.student* %78, i32 0, i32 4
  %80 = load i8, i8* %79, align 1
  %81 = sext i8 %80 to i32
  %82 = icmp eq i32 %81, 89
  br i1 %82, label %83, label %88

83:                                               ; preds = %77
  %84 = load %struct.student*, %struct.student** %6, align 8
  %85 = getelementptr inbounds %struct.student, %struct.student* %84, i32 0, i32 6
  %86 = load i32, i32* %85, align 4
  %87 = add nsw i32 %86, 1000
  store i32 %87, i32* %85, align 4
  br label %88

88:                                               ; preds = %83, %77, %72
  %89 = load %struct.student*, %struct.student** %6, align 8
  %90 = getelementptr inbounds %struct.student, %struct.student* %89, i32 0, i32 2
  %91 = load i32, i32* %90, align 8
  %92 = icmp sgt i32 %91, 80
  br i1 %92, label %93, label %104

93:                                               ; preds = %88
  %94 = load %struct.student*, %struct.student** %6, align 8
  %95 = getelementptr inbounds %struct.student, %struct.student* %94, i32 0, i32 3
  %96 = load i8, i8* %95, align 4
  %97 = sext i8 %96 to i32
  %98 = icmp eq i32 %97, 89
  br i1 %98, label %99, label %104

99:                                               ; preds = %93
  %100 = load %struct.student*, %struct.student** %6, align 8
  %101 = getelementptr inbounds %struct.student, %struct.student* %100, i32 0, i32 6
  %102 = load i32, i32* %101, align 4
  %103 = add nsw i32 %102, 850
  store i32 %103, i32* %101, align 4
  br label %104

104:                                              ; preds = %99, %93, %88
  %105 = load %struct.student*, %struct.student** %6, align 8
  %106 = getelementptr inbounds %struct.student, %struct.student* %105, i32 0, i32 6
  %107 = load i32, i32* %106, align 4
  %108 = load i32, i32* %3, align 4
  %109 = icmp sgt i32 %107, %108
  br i1 %109, label %110, label %115

110:                                              ; preds = %104
  %111 = load %struct.student*, %struct.student** %6, align 8
  %112 = getelementptr inbounds %struct.student, %struct.student* %111, i32 0, i32 6
  %113 = load i32, i32* %112, align 4
  store i32 %113, i32* %3, align 4
  %114 = load %struct.student*, %struct.student** %6, align 8
  store %struct.student* %114, %struct.student** %7, align 8
  br label %115

115:                                              ; preds = %110, %104
  %116 = load %struct.student*, %struct.student** %6, align 8
  %117 = getelementptr inbounds %struct.student, %struct.student* %116, i32 0, i32 6
  %118 = load i32, i32* %117, align 4
  %119 = load i32, i32* %4, align 4
  %120 = add nsw i32 %119, %118
  store i32 %120, i32* %4, align 4
  %121 = call noalias i8* @malloc(i64 48) #3
  %122 = bitcast i8* %121 to %struct.student*
  %123 = load %struct.student*, %struct.student** %6, align 8
  %124 = getelementptr inbounds %struct.student, %struct.student* %123, i32 0, i32 7
  store %struct.student* %122, %struct.student** %124, align 8
  store %struct.student* %122, %struct.student** %6, align 8
  %125 = load %struct.student*, %struct.student** %6, align 8
  %126 = getelementptr inbounds %struct.student, %struct.student* %125, i32 0, i32 6
  store i32 0, i32* %126, align 4
  br label %13

127:                                              ; preds = %13
  %128 = load %struct.student*, %struct.student** %7, align 8
  %129 = getelementptr inbounds %struct.student, %struct.student* %128, i32 0, i32 0
  %130 = getelementptr inbounds [20 x i8], [20 x i8]* %129, i64 0, i64 0
  %131 = load i32, i32* %3, align 4
  %132 = load i32, i32* %4, align 4
  %133 = call i32 (i8*, ...) @printf(i8* getelementptr inbounds ([10 x i8], [10 x i8]* @.str.2, i64 0, i64 0), i8* %130, i32 %131, i32 %132)
  ret void
}

declare dso_local i32 @__isoc99_scanf(i8*, ...) #1

; Function Attrs: nounwind
declare dso_local noalias i8* @malloc(i64) #2

declare dso_local i32 @printf(i8*, ...) #1


!llvm.module.flags = !{!0}
!llvm.ident = !{!1}

!0 = !{i32 1, !"wchar_size", i32 4}
!1 = !{!"clang version 10.0.0-4ubuntu1 "}
